; Function Attrs: mustprogress uwtable
define hidden void @_ZN4cvc54main15CommandExecutorC2ERSt10unique_ptrINS_6SolverESt14default_deleteIS3_EE(ptr noundef nonnull align 8 dereferenceable(41) %this, ptr noundef nonnull align 8 dereferenceable(8) %solver) unnamed_addr #4 align 2 personality ptr @__gxx_personality_v0 {
entry:
  store ptr getelementptr inbounds ({ [6 x ptr] }, ptr @_ZTVN4cvc54main15CommandExecutorE, i64 0, i32 0, i64 2), ptr %this, align 8
  %d_solver = getelementptr inbounds i8, ptr %this, i64 8
  store ptr %solver, ptr %d_solver, align 8
  %d_symman = getelementptr inbounds i8, ptr %this, i64 16
  %call = tail call noalias noundef nonnull dereferenceable(16) ptr @_Znwm(i64 noundef 16) #16
  %0 = load ptr, ptr %solver, align 8
  invoke void @_ZN4cvc56parser13SymbolManagerC1EPNS_6SolverE(ptr noundef nonnull align 8 dereferenceable(16) %call, ptr noundef %0)
          to label %invoke.cont unwind label %lpad

invoke.cont:                                      ; preds = %entry
  store ptr %call, ptr %d_symman, align 8
  %d_result = getelementptr inbounds i8, ptr %this, i64 24
  invoke void @_ZN4cvc56ResultC1Ev(ptr noundef nonnull align 8 dereferenceable(16) %d_result)
          to label %invoke.cont5 unwind label %lpad4

invoke.cont5:                                     ; preds = %invoke.cont
  %d_parseOnly = getelementptr inbounds i8, ptr %this, i64 40
  store i8 0, ptr %d_parseOnly, align 8
  ret void

lpad:                                             ; preds = %entry
  %1 = landingpad { ptr, i32 }
          cleanup
  tail call void @_ZdlPv(ptr noundef nonnull %call) #17
  br label %eh.resume

lpad4:                                            ; preds = %invoke.cont
  %2 = landingpad { ptr, i32 }
          cleanup
  tail call void @_ZNSt10unique_ptrIN4cvc56parser13SymbolManagerESt14default_deleteIS2_EED2Ev(ptr noundef nonnull align 8 dereferenceable(8) %d_symman) #15
  br label %eh.resume

eh.resume:                                        ; preds = %lpad4, %lpad
  %.pn = phi { ptr, i32 } [ %2, %lpad4 ], [ %1, %lpad ]
  resume { ptr, i32 } %.pn
}